Certificate:
    Data:
        Version: 3 (0x2)
        Serial Number:
            50:41:e6:71:d8:d7:01:ac:3a:02:47:be:a8:ae:9a:2b
        Signature Algorithm: sha256WithRSAEncryption
        Issuer: CN=ChangeMe
        Validity
            Not Before: Dec  5 12:11:56 2022 GMT
            Not After : Mar  9 12:11:56 2025 GMT
        Subject: CN=team2-client
        Subject Public Key Info:
            Public Key Algorithm: rsaEncryption
                RSA Public-Key: (2048 bit)
                Modulus:
                    00:bc:64:be:c3:0d:b9:bc:00:52:12:76:cc:2a:25:
                    98:eb:e0:9a:b4:db:60:c8:a3:7f:9e:7d:15:f3:b1:
                    a5:1e:cf:27:f0:a6:23:02:e2:31:3b:9a:ae:c1:e2:
                    ab:0f:d5:44:8f:e4:66:3a:f0:62:8b:6c:2d:e6:b5:
                    b6:77:40:0a:63:ef:fd:95:06:22:18:d2:12:2c:e8:
                    84:19:cf:18:60:6b:da:e8:86:a9:c6:33:96:fe:fb:
                    0c:e7:9a:f2:df:0f:f9:2a:50:39:0c:5e:07:a2:58:
                    2c:d1:68:a1:d2:e2:d8:b5:ae:bf:c0:af:86:f5:c9:
                    47:68:91:16:ff:a0:aa:8c:ec:f5:3e:1d:7d:90:b4:
                    77:a0:16:3a:e3:2e:5e:b0:23:64:c8:96:9e:7b:78:
                    9e:ff:e6:75:d1:80:05:4f:eb:e8:5b:38:03:ee:4b:
                    c3:4a:b2:d4:47:f8:85:40:3c:59:3b:70:9b:95:80:
                    00:71:ba:eb:2b:e3:aa:1f:48:ae:62:47:4c:21:55:
                    97:c5:04:3d:de:b8:0b:b6:89:7e:eb:a7:32:e8:c3:
                    a1:61:a3:89:22:86:7a:3d:85:08:89:f7:29:57:22:
                    d7:6e:43:6b:04:b3:27:05:43:7d:ec:fb:e5:f4:21:
                    01:5b:c4:ba:65:49:7a:59:cd:41:a3:2c:48:ed:f7:
                    6e:57
                Exponent: 65537 (0x10001)
        X509v3 extensions:
            X509v3 Basic Constraints: 
                CA:FALSE
            X509v3 Subject Key Identifier: 
                D9:DB:67:31:AA:06:EA:7F:C8:DC:BD:7A:4F:1E:2C:4C:BB:A5:A6:CC
            X509v3 Authority Key Identifier: 
                keyid:00:31:C0:10:A0:61:DC:21:AB:0F:01:8B:96:55:5B:D6:52:02:91:C9
                DirName:/CN=ChangeMe
                serial:1E:37:17:56:1A:09:A8:76:02:4B:19:4E:67:59:EC:BC:6E:4E:20:5E

            X509v3 Extended Key Usage: 
                TLS Web Client Authentication
            X509v3 Key Usage: 
                Digital Signature
    Signature Algorithm: sha256WithRSAEncryption
         ab:5f:c0:1d:b2:4b:16:94:42:29:2c:57:80:1a:bd:8c:54:0e:
         e0:6f:3f:29:e5:10:f2:a8:aa:35:cd:16:7b:f3:d3:eb:13:e0:
         9d:29:77:a0:3d:e2:c0:c5:5d:a1:9d:36:74:0f:05:32:54:32:
         83:d7:c1:0a:55:1b:0a:52:1d:cc:2d:3e:70:0d:9f:2e:2c:55:
         c3:ba:45:05:e8:c7:33:af:1e:61:1e:ea:e4:67:8c:22:1f:a7:
         67:f9:88:f9:97:c8:2e:bc:0e:aa:5a:77:dd:1c:53:67:ab:dc:
         c7:ab:3a:32:13:27:1a:74:31:93:c8:df:ff:1c:4a:e5:2b:ba:
         9d:8d:73:f6:aa:62:0a:3b:d5:66:4a:a1:b2:33:2b:54:61:50:
         08:cd:43:13:4e:b6:9a:e6:7d:cd:dd:ee:8b:e2:67:47:66:b9:
         e0:63:9e:d3:28:a0:25:19:81:dd:0a:86:8e:7d:06:65:c8:5f:
         72:17:00:30:c7:99:9b:ed:32:30:10:ac:9e:36:27:30:65:7a:
         11:b2:1f:e4:d9:3e:d1:e8:b2:85:3b:15:d7:e1:ff:69:77:f6:
         81:c8:c1:ab:e6:e1:35:97:74:d8:a4:32:ca:87:76:fc:55:76:
         25:3e:9c:fc:fd:9a:0a:95:eb:f3:f2:c7:74:9d:8e:26:91:f6:
         a9:8e:eb:5a
-----BEGIN CERTIFICATE-----
MIIDVDCCAjygAwIBAgIQUEHmcdjXAaw6Ake+qK6aKzANBgkqhkiG9w0BAQsFADAT
MREwDwYDVQQDDAhDaGFuZ2VNZTAeFw0yMjEyMDUxMjExNTZaFw0yNTAzMDkxMjEx
NTZaMBcxFTATBgNVBAMMDHRlYW0yLWNsaWVudDCCASIwDQYJKoZIhvcNAQEBBQAD
ggEPADCCAQoCggEBALxkvsMNubwAUhJ2zColmOvgmrTbYMijf559FfOxpR7PJ/Cm
IwLiMTuarsHiqw/VRI/kZjrwYotsLea1tndACmPv/ZUGIhjSEizohBnPGGBr2uiG
qcYzlv77DOea8t8P+SpQOQxeB6JYLNFoodLi2LWuv8CvhvXJR2iRFv+gqozs9T4d
fZC0d6AWOuMuXrAjZMiWnnt4nv/mddGABU/r6Fs4A+5Lw0qy1Ef4hUA8WTtwm5WA
AHG66yvjqh9IrmJHTCFVl8UEPd64C7aJfuunMujDoWGjiSKGej2FCIn3KVci125D
awSzJwVDfez75fQhAVvEumVJelnNQaMsSO33blcCAwEAAaOBnzCBnDAJBgNVHRME
AjAAMB0GA1UdDgQWBBTZ22cxqgbqf8jcvXpPHixMu6WmzDBOBgNVHSMERzBFgBQA
McAQoGHcIasPAYuWVVvWUgKRyaEXpBUwEzERMA8GA1UEAwwIQ2hhbmdlTWWCFB43
F1YaCah2AksZTmdZ7LxuTiBeMBMGA1UdJQQMMAoGCCsGAQUFBwMCMAsGA1UdDwQE
AwIHgDANBgkqhkiG9w0BAQsFAAOCAQEAq1/AHbJLFpRCKSxXgBq9jFQO4G8/KeUQ
8qiqNc0We/PT6xPgnSl3oD3iwMVdoZ02dA8FMlQyg9fBClUbClIdzC0+cA2fLixV
w7pFBejHM68eYR7q5GeMIh+nZ/mI+ZfILrwOqlp33RxTZ6vcx6s6MhMnGnQxk8jf
/xxK5Su6nY1z9qpiCjvVZkqhsjMrVGFQCM1DE062muZ9zd3ui+JnR2a54GOe0yig
JRmB3QqGjn0GZchfchcAMMeZm+0yMBCsnjYnMGV6EbIf5Nk+0eiyhTsV1+H/aXf2
gcjBq+bhNZd02KQyyod2/FV2JT6c/P2aCpXr8/LHdJ2OJpH2qY7rWg==
-----END CERTIFICATE-----
