Certificate:
    Data:
        Version: 3 (0x2)
        Serial Number:
            32:7d:75:31:d5:f1:65:7c:83:a1:a6:09:2b:5b:14:3c
        Signature Algorithm: sha256WithRSAEncryption
        Issuer: CN=ChangeMe
        Validity
            Not Before: Dec  5 12:07:31 2022 GMT
            Not After : Mar  9 12:07:31 2025 GMT
        Subject: CN=team1-client
        Subject Public Key Info:
            Public Key Algorithm: rsaEncryption
                RSA Public-Key: (2048 bit)
                Modulus:
                    00:c0:10:d3:45:f4:b0:70:e9:f4:cf:4b:dc:f6:36:
                    ff:d7:42:4f:ee:c0:a3:72:cc:6a:63:57:05:49:35:
                    10:2a:74:0e:b6:8d:cc:69:39:42:f8:54:d2:8a:8b:
                    a3:f9:b9:6e:25:a0:85:fe:d6:ad:35:47:43:e9:67:
                    4d:3c:f8:48:7d:28:17:a1:e5:95:9e:39:18:f3:4e:
                    9e:17:56:67:c2:95:b1:48:ec:53:15:37:62:98:6c:
                    b6:69:be:40:c8:30:36:93:3e:e9:2b:1c:71:4a:01:
                    ee:66:a6:90:5f:38:fc:21:52:09:36:98:22:44:92:
                    0c:c3:33:af:d7:7a:2f:e9:a1:03:1d:23:1e:f9:32:
                    1f:59:78:96:fb:ce:b5:f5:72:8e:b3:48:26:24:34:
                    5d:90:2f:85:fd:13:4e:31:6d:ad:21:50:63:a1:b8:
                    78:19:0b:70:47:a6:57:e4:11:af:17:e1:89:1c:3d:
                    c7:ed:1c:76:8e:ea:b4:48:8b:f3:4f:74:02:6d:60:
                    82:4b:2d:3b:ac:fa:c4:14:01:67:3b:f9:85:8c:6a:
                    2b:ad:17:d5:0e:aa:63:05:61:06:47:1f:de:b5:b7:
                    ef:07:48:bf:47:fa:67:c9:36:96:40:b2:ed:c9:d1:
                    bf:0a:9e:e6:02:58:6b:41:63:d1:49:71:77:60:c9:
                    f5:7d
                Exponent: 65537 (0x10001)
        X509v3 extensions:
            X509v3 Basic Constraints: 
                CA:FALSE
            X509v3 Subject Key Identifier: 
                95:21:05:BF:5A:02:89:18:47:4A:D2:B0:B0:1F:5D:CD:50:30:45:CA
            X509v3 Authority Key Identifier: 
                keyid:5F:63:8D:D4:2F:22:D5:94:80:B5:A6:9C:C4:8C:17:B7:66:F1:41:A5
                DirName:/CN=ChangeMe
                serial:0A:68:13:89:25:57:5B:CB:D1:17:09:F5:97:80:98:00:D7:43:65:D4

            X509v3 Extended Key Usage: 
                TLS Web Client Authentication
            X509v3 Key Usage: 
                Digital Signature
    Signature Algorithm: sha256WithRSAEncryption
         8c:3b:b3:b3:6a:bc:1a:9d:02:0e:ab:01:23:fb:5f:c6:f6:c4:
         16:c5:72:5c:1b:82:41:e8:86:3a:43:ed:7d:e3:2d:38:51:f1:
         bc:63:e5:83:cd:65:50:d2:1c:dc:22:ff:df:34:de:1b:48:c0:
         36:0c:1c:f2:e5:7a:8c:ca:38:a8:e7:36:b8:f7:dd:d4:ae:e7:
         d1:d6:dc:4a:de:6c:bc:84:ce:aa:b4:ef:a9:8a:e2:f3:ef:1c:
         df:06:cf:0f:d7:5d:8e:f6:96:69:09:1e:bf:9b:eb:6f:f4:78:
         47:40:b4:15:de:26:ac:b0:29:95:bf:1c:84:02:2b:40:77:43:
         25:4b:22:56:dd:00:6e:e2:8b:34:8b:48:a1:89:59:39:e9:ac:
         60:30:ef:16:c5:6e:8b:0f:0a:f0:22:62:2d:bd:a3:88:2b:5b:
         5e:5a:5a:de:e2:e5:77:a3:3f:17:6b:87:ad:23:05:74:f2:ab:
         18:f4:99:45:34:a0:1a:01:cb:9b:ab:09:9a:86:d3:6d:6a:e5:
         fc:92:c9:74:5b:8f:f4:e9:0f:53:e1:70:66:62:4a:be:64:7a:
         10:4f:54:f2:d6:e0:b1:4c:f2:03:7f:c3:b9:96:2c:2e:7e:30:
         6d:87:26:c6:0b:9b:96:c8:9f:28:af:23:c5:10:67:1e:38:87:
         fd:11:59:9d
-----BEGIN CERTIFICATE-----
MIIDVDCCAjygAwIBAgIQMn11MdXxZXyDoaYJK1sUPDANBgkqhkiG9w0BAQsFADAT
MREwDwYDVQQDDAhDaGFuZ2VNZTAeFw0yMjEyMDUxMjA3MzFaFw0yNTAzMDkxMjA3
MzFaMBcxFTATBgNVBAMMDHRlYW0xLWNsaWVudDCCASIwDQYJKoZIhvcNAQEBBQAD
ggEPADCCAQoCggEBAMAQ00X0sHDp9M9L3PY2/9dCT+7Ao3LMamNXBUk1ECp0DraN
zGk5QvhU0oqLo/m5biWghf7WrTVHQ+lnTTz4SH0oF6HllZ45GPNOnhdWZ8KVsUjs
UxU3Yphstmm+QMgwNpM+6SsccUoB7mamkF84/CFSCTaYIkSSDMMzr9d6L+mhAx0j
HvkyH1l4lvvOtfVyjrNIJiQ0XZAvhf0TTjFtrSFQY6G4eBkLcEemV+QRrxfhiRw9
x+0cdo7qtEiL8090Am1ggkstO6z6xBQBZzv5hYxqK60X1Q6qYwVhBkcf3rW37wdI
v0f6Z8k2lkCy7cnRvwqe5gJYa0Fj0Ulxd2DJ9X0CAwEAAaOBnzCBnDAJBgNVHRME
AjAAMB0GA1UdDgQWBBSVIQW/WgKJGEdK0rCwH13NUDBFyjBOBgNVHSMERzBFgBRf
Y43ULyLVlIC1ppzEjBe3ZvFBpaEXpBUwEzERMA8GA1UEAwwIQ2hhbmdlTWWCFApo
E4klV1vL0RcJ9ZeAmADXQ2XUMBMGA1UdJQQMMAoGCCsGAQUFBwMCMAsGA1UdDwQE
AwIHgDANBgkqhkiG9w0BAQsFAAOCAQEAjDuzs2q8Gp0CDqsBI/tfxvbEFsVyXBuC
QeiGOkPtfeMtOFHxvGPlg81lUNIc3CL/3zTeG0jANgwc8uV6jMo4qOc2uPfd1K7n
0dbcSt5svITOqrTvqYri8+8c3wbPD9ddjvaWaQkev5vrb/R4R0C0Fd4mrLAplb8c
hAIrQHdDJUsiVt0AbuKLNItIoYlZOemsYDDvFsVuiw8K8CJiLb2jiCtbXlpa3uLl
d6M/F2uHrSMFdPKrGPSZRTSgGgHLm6sJmobTbWrl/JLJdFuP9OkPU+FwZmJKvmR6
EE9U8tbgsUzyA3/DuZYsLn4wbYcmxgublsifKK8jxRBnHjiH/RFZnQ==
-----END CERTIFICATE-----
