Certificate:
    Data:
        Version: 3 (0x2)
        Serial Number:
            c7:e6:91:b2:48:cf:6e:93:d8:5f:8f:88:33:95:23:2a
        Signature Algorithm: sha256WithRSAEncryption
        Issuer: CN=ChangeMe
        Validity
            Not Before: Dec  5 12:11:55 2022 GMT
            Not After : Mar  9 12:11:55 2025 GMT
        Subject: CN=team2-server
        Subject Public Key Info:
            Public Key Algorithm: rsaEncryption
                RSA Public-Key: (2048 bit)
                Modulus:
                    00:a3:c1:65:27:f3:fd:4f:e0:9a:92:0a:2d:8c:27:
                    96:85:67:76:9b:df:48:70:b6:aa:46:6a:d8:00:3a:
                    31:87:cb:94:b6:23:8b:95:23:72:dd:5f:ba:be:56:
                    5b:d6:9f:f3:55:cc:79:06:8f:4e:bf:14:00:d4:f3:
                    46:09:11:41:71:a6:2d:73:65:0e:26:66:bd:69:0a:
                    2b:6c:c5:e6:1d:b8:b1:14:ce:80:32:81:a7:b2:e0:
                    d3:d3:7b:8a:7c:d5:e6:5d:3f:c0:36:08:af:46:2c:
                    56:ed:c7:e5:f0:6b:95:57:d7:22:58:0c:df:a0:f3:
                    35:57:44:95:af:75:2c:95:cb:e3:cc:fd:79:85:6b:
                    a3:3e:da:8a:4b:63:f1:09:5c:76:0f:0e:83:8e:2a:
                    24:62:91:68:df:ba:e8:73:74:fa:2f:c0:54:a6:6e:
                    35:9f:b7:73:43:05:1e:b3:04:62:12:43:4c:b7:98:
                    7f:5d:02:af:de:4e:d6:d6:6a:94:de:7c:bb:c6:25:
                    c7:6e:89:37:74:42:46:fb:8c:bd:49:0a:c1:5a:d3:
                    0c:d8:50:de:8d:af:e9:41:a9:c5:53:2b:94:6e:f4:
                    70:d2:d3:8e:7a:0d:36:50:76:75:09:17:6b:0a:57:
                    5e:c5:52:69:bc:d9:f6:18:f7:43:56:8f:16:d7:2f:
                    f0:55
                Exponent: 65537 (0x10001)
        X509v3 extensions:
            X509v3 Basic Constraints: 
                CA:FALSE
            X509v3 Subject Key Identifier: 
                2F:91:16:79:C3:05:BE:D9:F9:8C:89:78:B3:24:2A:3A:5B:16:99:29
            X509v3 Authority Key Identifier: 
                keyid:00:31:C0:10:A0:61:DC:21:AB:0F:01:8B:96:55:5B:D6:52:02:91:C9
                DirName:/CN=ChangeMe
                serial:1E:37:17:56:1A:09:A8:76:02:4B:19:4E:67:59:EC:BC:6E:4E:20:5E

            X509v3 Extended Key Usage: 
                TLS Web Server Authentication
            X509v3 Key Usage: 
                Digital Signature, Key Encipherment
            X509v3 Subject Alternative Name: 
                DNS:team2-server
    Signature Algorithm: sha256WithRSAEncryption
         0b:9f:ab:c5:26:3d:f0:be:3c:c3:d5:ae:87:31:dc:d9:11:47:
         74:58:5e:48:8e:1a:7e:21:b6:64:d7:10:6c:8c:00:60:30:97:
         95:b6:c0:65:8c:15:ad:4e:37:d7:81:2c:a0:19:45:e9:32:c8:
         fb:e4:6a:67:44:13:00:49:1f:f4:6a:f8:05:e5:49:d3:0c:86:
         6f:c7:39:ee:c6:ee:a9:92:85:3e:04:0a:1e:c2:c7:16:09:43:
         24:a1:a5:f4:8e:94:b8:c2:ab:30:2e:0a:e0:67:af:0f:cc:4a:
         4c:3d:e5:07:11:b1:a4:b8:5c:c8:f8:ff:e1:83:8b:fc:c2:6f:
         f5:d8:e3:17:4c:4b:21:d7:8d:c0:e9:40:d2:aa:0a:71:e2:ed:
         53:fc:d9:a6:d0:aa:48:84:49:32:96:75:b7:a4:03:97:12:70:
         50:35:cd:81:b1:63:39:e0:9c:2e:d6:a5:a7:1c:5d:15:88:8e:
         86:f2:cd:1b:09:14:09:b1:05:27:c9:fe:09:88:b7:ec:d7:06:
         17:4a:db:57:e7:8c:6a:c0:df:f3:85:b4:01:63:be:e8:af:cc:
         1d:cd:fc:df:5e:c3:7b:88:29:bb:67:69:ec:21:65:37:cd:ce:
         5b:4b:cd:68:23:70:41:e8:f3:93:5c:6e:ef:f6:55:82:38:79:
         1c:3d:1b:10
-----BEGIN CERTIFICATE-----
MIIDbjCCAlagAwIBAgIRAMfmkbJIz26T2F+PiDOVIyowDQYJKoZIhvcNAQELBQAw
EzERMA8GA1UEAwwIQ2hhbmdlTWUwHhcNMjIxMjA1MTIxMTU1WhcNMjUwMzA5MTIx
MTU1WjAXMRUwEwYDVQQDDAx0ZWFtMi1zZXJ2ZXIwggEiMA0GCSqGSIb3DQEBAQUA
A4IBDwAwggEKAoIBAQCjwWUn8/1P4JqSCi2MJ5aFZ3ab30hwtqpGatgAOjGHy5S2
I4uVI3LdX7q+VlvWn/NVzHkGj06/FADU80YJEUFxpi1zZQ4mZr1pCitsxeYduLEU
zoAygaey4NPTe4p81eZdP8A2CK9GLFbtx+Xwa5VX1yJYDN+g8zVXRJWvdSyVy+PM
/XmFa6M+2opLY/EJXHYPDoOOKiRikWjfuuhzdPovwFSmbjWft3NDBR6zBGISQ0y3
mH9dAq/eTtbWapTefLvGJcduiTd0Qkb7jL1JCsFa0wzYUN6Nr+lBqcVTK5Ru9HDS
0456DTZQdnUJF2sKV17FUmm82fYY90NWjxbXL/BVAgMBAAGjgbgwgbUwCQYDVR0T
BAIwADAdBgNVHQ4EFgQUL5EWecMFvtn5jIl4syQqOlsWmSkwTgYDVR0jBEcwRYAU
ADHAEKBh3CGrDwGLllVb1lICkcmhF6QVMBMxETAPBgNVBAMMCENoYW5nZU1lghQe
NxdWGgmodgJLGU5nWey8bk4gXjATBgNVHSUEDDAKBggrBgEFBQcDATALBgNVHQ8E
BAMCBaAwFwYDVR0RBBAwDoIMdGVhbTItc2VydmVyMA0GCSqGSIb3DQEBCwUAA4IB
AQALn6vFJj3wvjzD1a6HMdzZEUd0WF5Ijhp+IbZk1xBsjABgMJeVtsBljBWtTjfX
gSygGUXpMsj75GpnRBMASR/0avgF5UnTDIZvxznuxu6pkoU+BAoewscWCUMkoaX0
jpS4wqswLgrgZ68PzEpMPeUHEbGkuFzI+P/hg4v8wm/12OMXTEsh143A6UDSqgpx
4u1T/Nmm0KpIhEkylnW3pAOXEnBQNc2BsWM54Jwu1qWnHF0ViI6G8s0bCRQJsQUn
yf4JiLfs1wYXSttX54xqwN/zhbQBY77or8wdzfzfXsN7iCm7Z2nsIWU3zc5bS81o
I3BB6POTXG7v9lWCOHkcPRsQ
-----END CERTIFICATE-----
